target datalayout = "e-m:e-p270:32:32-p271:32:32-p272:64:64-i64:64-i128:128-f80:128-n8:16:32:64-S128"
target triple = "x86_64-pc-linux-gnu"

%"class.vcg::PerViewData" = type { %"class.std::bitset", %"class.std::vector.16", ptr }
%"class.std::bitset" = type { %"struct.std::_Base_bitset" }
%"struct.std::_Base_bitset" = type { i64 }
%"class.std::vector.16" = type { %"struct.std::_Vector_base.17" }
%"struct.std::_Vector_base.17" = type { %"struct.std::_Vector_base<vcg::GLMeshAttributesInfo::InternalRendAtts, std::allocator<vcg::GLMeshAttributesInfo::InternalRendAtts>>::_Vector_impl" }
%"struct.std::_Vector_base<vcg::GLMeshAttributesInfo::InternalRendAtts, std::allocator<vcg::GLMeshAttributesInfo::InternalRendAtts>>::_Vector_impl" = type { %"struct.std::_Vector_base<vcg::GLMeshAttributesInfo::InternalRendAtts, std::allocator<vcg::GLMeshAttributesInfo::InternalRendAtts>>::_Vector_impl_data" }
%"struct.std::_Vector_base<vcg::GLMeshAttributesInfo::InternalRendAtts, std::allocator<vcg::GLMeshAttributesInfo::InternalRendAtts>>::_Vector_impl_data" = type { ptr, ptr, ptr }
%"class.vcg::GLMeshAttributesInfo::InternalRendAtts" = type { %"class.vcg::GLMeshAttributesInfo::RenderingAtts.21" }
%"class.vcg::GLMeshAttributesInfo::RenderingAtts.21" = type { [9 x i8] }
%"class.std::allocator.22" = type { i8 }
%"struct.vcg::GLMeshAttributesInfo::Exception" = type { %"class.std::exception", %"class.std::__cxx11::basic_string" }
%"class.std::exception" = type { ptr }
%"class.std::__cxx11::basic_string" = type { %"struct.std::__cxx11::basic_string<char>::_Alloc_hider", i64, %union.anon }
%"struct.std::__cxx11::basic_string<char>::_Alloc_hider" = type { ptr }
%union.anon = type { i64, [8 x i8] }

@.str.6 = private unnamed_addr constant [20 x i8] c"Out of range value\0A\00", align 1
@_ZTIN3vcg20GLMeshAttributesInfo9ExceptionE = linkonce_odr constant { ptr, ptr, ptr } { ptr getelementptr inbounds (ptr, ptr @_ZTVN10__cxxabiv120__si_class_type_infoE, i64 2), ptr @_ZTSN3vcg20GLMeshAttributesInfo9ExceptionE, ptr @_ZTISt9exception }, comdat, align 8
@_ZTVSt9exception = external unnamed_addr constant { [5 x ptr] }, align 8
@.str.11 = private unnamed_addr constant [13 x i8] c"bitset::test\00", align 1
@.str.12 = private unnamed_addr constant [52 x i8] c"%s: __position (which is %zu) >= _Nb (which is %zu)\00", align 1

; Function Attrs: mustprogress nounwind uwtable
define linkonce_odr noundef i64 @_ZNSt12_Base_bitsetILm1EE11_S_whichbitEm(i64 noundef %0) #4 comdat align 2 {
  %2 = alloca i64, align 8
  store i64 %0, ptr %2, align 8
  %3 = load i64, ptr %2, align 8
  %4 = urem i64 %3, 64
  ret i64 %4
}

; Function Attrs: mustprogress nounwind uwtable
define linkonce_odr void @_ZNSt9exceptionC2Ev(ptr noundef nonnull align 8 dereferenceable(8) %0) unnamed_addr #4 comdat align 2 {
  %2 = alloca ptr, align 8
  store ptr %0, ptr %2, align 8
  %3 = load ptr, ptr %2, align 8
  store ptr getelementptr inbounds ({ [5 x ptr] }, ptr @_ZTVSt9exception, i32 0, i32 0, i32 2), ptr %3, align 8
  ret void
}

; Function Attrs: mustprogress nounwind uwtable
define linkonce_odr noundef i64 @_ZNSt12_Base_bitsetILm1EE10_S_maskbitEm(i64 noundef %0) #4 comdat align 2 {
  %2 = alloca i64, align 8
  store i64 %0, ptr %2, align 8
  %3 = load i64, ptr %2, align 8
  %4 = call noundef i64 @_ZNSt12_Base_bitsetILm1EE11_S_whichbitEm(i64 noundef %3) #3
  %5 = shl i64 1, %4
  ret i64 %5
}

; Function Attrs: mustprogress nounwind uwtable
define linkonce_odr noundef i64 @_ZNKSt12_Base_bitsetILm1EE10_M_getwordEm(ptr noundef nonnull align 8 dereferenceable(8) %0, i64 noundef %1) #4 comdat align 2 {
  %3 = alloca ptr, align 8
  %4 = alloca i64, align 8
  store ptr %0, ptr %3, align 8
  store i64 %1, ptr %4, align 8
  %5 = load ptr, ptr %3, align 8
  %6 = getelementptr inbounds %"struct.std::_Base_bitset", ptr %5, i32 0, i32 0
  %7 = load i64, ptr %6, align 8
  ret i64 %7
}

; Function Attrs: mustprogress uwtable
define linkonce_odr void @_ZN3vcg20GLMeshAttributesInfo9ExceptionC2EPKc(ptr noundef nonnull align 8 dereferenceable(40) %0, ptr noundef %1) unnamed_addr #5 comdat align 2 personality ptr @__gxx_personality_v0 {
  %3 = alloca ptr, align 8
  %4 = alloca ptr, align 8
  %5 = alloca %"class.std::allocator.22", align 1
  %6 = alloca ptr, align 8
  %7 = alloca i32, align 4
  store ptr %0, ptr %3, align 8
  store ptr %1, ptr %4, align 8
  %8 = load ptr, ptr %3, align 8
  call void @_ZNSt9exceptionC2Ev(ptr noundef nonnull align 8 dereferenceable(8) %8) #3
  store ptr getelementptr inbounds ({ [5 x ptr] }, ptr @_ZTVN3vcg20GLMeshAttributesInfo9ExceptionE, i32 0, i32 0, i32 2), ptr %8, align 8
  %9 = getelementptr inbounds %"struct.vcg::GLMeshAttributesInfo::Exception", ptr %8, i32 0, i32 1
  %10 = load ptr, ptr %4, align 8
  call void @_ZNSaIcEC1Ev(ptr noundef nonnull align 1 dereferenceable(1) %5) #3
  invoke void @_ZNSt7__cxx1112basic_stringIcSt11char_traitsIcESaIcEEC1EPKcRKS3_(ptr noundef nonnull align 8 dereferenceable(32) %9, ptr noundef %10, ptr noundef nonnull align 1 dereferenceable(1) %5)
          to label %11 unwind label %12

11:                                               ; preds = %2
  call void @_ZNSaIcED1Ev(ptr noundef nonnull align 1 dereferenceable(1) %5) #3
  ret void

12:                                               ; preds = %2
  %13 = landingpad { ptr, i32 }
          cleanup
  %14 = extractvalue { ptr, i32 } %13, 0
  store ptr %14, ptr %6, align 8
  %15 = extractvalue { ptr, i32 } %13, 1
  store i32 %15, ptr %7, align 4
  call void @_ZNSaIcED1Ev(ptr noundef nonnull align 1 dereferenceable(1) %5) #3
  call void @_ZNSt9exceptionD2Ev(ptr noundef nonnull align 8 dereferenceable(8) %8) #3
  br label %16

16:                                               ; preds = %12
  %17 = load ptr, ptr %6, align 8
  %18 = load i32, ptr %7, align 4
  %19 = insertvalue { ptr, i32 } poison, ptr %17, 0
  %20 = insertvalue { ptr, i32 } %19, i32 %18, 1
  resume { ptr, i32 } %20
}

; Function Attrs: mustprogress nounwind uwtable
define linkonce_odr noundef i32 @_ZN3vcg20GLMeshAttributesInfo13INT_ATT_NAMES9enumArityEv() #4 comdat align 2 {
  ret i32 9
}

; Function Attrs: mustprogress nounwind uwtable
define linkonce_odr noundef zeroext i1 @_ZNKSt6bitsetILm4EE15_Unchecked_testEm(ptr noundef nonnull align 8 dereferenceable(8) %0, i64 noundef %1) #4 comdat align 2 {
  %3 = alloca ptr, align 8
  %4 = alloca i64, align 8
  store ptr %0, ptr %3, align 8
  store i64 %1, ptr %4, align 8
  %5 = load ptr, ptr %3, align 8
  %6 = load i64, ptr %4, align 8
  %7 = call noundef i64 @_ZNKSt12_Base_bitsetILm1EE10_M_getwordEm(ptr noundef nonnull align 8 dereferenceable(8) %5, i64 noundef %6) #3
  %8 = load i64, ptr %4, align 8
  %9 = call noundef i64 @_ZNSt12_Base_bitsetILm1EE10_S_maskbitEm(i64 noundef %8) #3
  %10 = and i64 %7, %9
  %11 = icmp ne i64 %10, 0
  ret i1 %11
}

; Function Attrs: mustprogress uwtable
define linkonce_odr void @_ZNKSt6bitsetILm4EE8_M_checkEmPKc(ptr noundef nonnull align 8 dereferenceable(8) %0, i64 noundef %1, ptr noundef %2) #5 comdat align 2 {
  %4 = alloca ptr, align 8
  %5 = alloca i64, align 8
  %6 = alloca ptr, align 8
  store ptr %0, ptr %4, align 8
  store i64 %1, ptr %5, align 8
  store ptr %2, ptr %6, align 8
  %7 = load i64, ptr %5, align 8
  %8 = icmp uge i64 %7, 4
  br i1 %8, label %9, label %12

9:                                                ; preds = %3
  %10 = load ptr, ptr %6, align 8
  %11 = load i64, ptr %5, align 8
  call void (ptr, ...) @_ZSt24__throw_out_of_range_fmtPKcz(ptr noundef @.str.12, ptr noundef %10, i64 noundef %11, i64 noundef 4) #14
  unreachable

12:                                               ; preds = %3
  ret void
}

; Function Attrs: mustprogress uwtable
define linkonce_odr noundef zeroext i1 @_ZNK3vcg20GLMeshAttributesInfo13RenderingAttsINS0_13INT_ATT_NAMESEEixEj(ptr noundef nonnull align 1 dereferenceable(9) %0, i32 noundef %1) #5 comdat align 2 personality ptr @__gxx_personality_v0 {
  %3 = alloca ptr, align 8
  %4 = alloca i32, align 4
  %5 = alloca ptr, align 8
  %6 = alloca i32, align 4
  store ptr %0, ptr %3, align 8
  store i32 %1, ptr %4, align 4
  %7 = load ptr, ptr %3, align 8
  %8 = load i32, ptr %4, align 4
  %9 = call noundef i32 @_ZN3vcg20GLMeshAttributesInfo13INT_ATT_NAMES9enumArityEv()
  %10 = icmp uge i32 %8, %9
  br i1 %10, label %11, label %18

11:                                               ; preds = %2
  %12 = call ptr @__cxa_allocate_exception(i64 40) #3
  invoke void @_ZN3vcg20GLMeshAttributesInfo9ExceptionC2EPKc(ptr noundef nonnull align 8 dereferenceable(40) %12, ptr noundef @.str.6)
          to label %13 unwind label %14

13:                                               ; preds = %11
  call void @__cxa_throw(ptr %12, ptr @_ZTIN3vcg20GLMeshAttributesInfo9ExceptionE, ptr @_ZN3vcg20GLMeshAttributesInfo9ExceptionD2Ev) #14
  unreachable

14:                                               ; preds = %11
  %15 = landingpad { ptr, i32 }
          cleanup
  %16 = extractvalue { ptr, i32 } %15, 0
  store ptr %16, ptr %5, align 8
  %17 = extractvalue { ptr, i32 } %15, 1
  store i32 %17, ptr %6, align 4
  call void @__cxa_free_exception(ptr %12) #3
  br label %25

18:                                               ; preds = %2
  %19 = getelementptr inbounds %"class.vcg::GLMeshAttributesInfo::RenderingAtts.21", ptr %7, i32 0, i32 0
  %20 = load i32, ptr %4, align 4
  %21 = zext i32 %20 to i64
  %22 = getelementptr inbounds [9 x i8], ptr %19, i64 0, i64 %21
  %23 = load i8, ptr %22, align 1
  %24 = trunc i8 %23 to i1
  ret i1 %24

25:                                               ; preds = %14
  %26 = load ptr, ptr %5, align 8
  %27 = load i32, ptr %6, align 4
  %28 = insertvalue { ptr, i32 } poison, ptr %26, 0
  %29 = insertvalue { ptr, i32 } %28, i32 %27, 1
  resume { ptr, i32 } %29
}

; Function Attrs: mustprogress nounwind uwtable
define linkonce_odr noundef nonnull align 1 dereferenceable(9) ptr @_ZNKSt6vectorIN3vcg20GLMeshAttributesInfo16InternalRendAttsESaIS2_EEixEm(ptr noundef nonnull align 8 dereferenceable(24) %0, i64 noundef %1) #4 comdat align 2 {
  %3 = alloca ptr, align 8
  %4 = alloca i64, align 8
  store ptr %0, ptr %3, align 8
  store i64 %1, ptr %4, align 8
  %5 = load ptr, ptr %3, align 8
  %6 = getelementptr inbounds %"struct.std::_Vector_base.17", ptr %5, i32 0, i32 0
  %7 = getelementptr inbounds %"struct.std::_Vector_base<vcg::GLMeshAttributesInfo::InternalRendAtts, std::allocator<vcg::GLMeshAttributesInfo::InternalRendAtts>>::_Vector_impl_data", ptr %6, i32 0, i32 0
  %8 = load ptr, ptr %7, align 8
  %9 = load i64, ptr %4, align 8
  %10 = getelementptr inbounds %"class.vcg::GLMeshAttributesInfo::InternalRendAtts", ptr %8, i64 %9
  ret ptr %10
}

; Function Attrs: mustprogress uwtable
define linkonce_odr noundef zeroext i1 @_ZNKSt6bitsetILm4EE4testEm(ptr noundef nonnull align 8 dereferenceable(8) %0, i64 noundef %1) #5 comdat align 2 {
  %3 = alloca ptr, align 8
  %4 = alloca i64, align 8
  store ptr %0, ptr %3, align 8
  store i64 %1, ptr %4, align 8
  %5 = load ptr, ptr %3, align 8
  %6 = load i64, ptr %4, align 8
  call void @_ZNKSt6bitsetILm4EE8_M_checkEmPKc(ptr noundef nonnull align 8 dereferenceable(8) %5, i64 noundef %6, ptr noundef @.str.11)
  %7 = load i64, ptr %4, align 8
  %8 = call noundef zeroext i1 @_ZNKSt6bitsetILm4EE15_Unchecked_testEm(ptr noundef nonnull align 8 dereferenceable(8) %5, i64 noundef %7) #3
  ret i1 %8
}

; Function Attrs: mustprogress uwtable
define linkonce_odr noundef zeroext i1 @_ZNK3vcg11PerViewDataI18MLPerViewGLOptionsE17isPrimitiveActiveENS_20GLMeshAttributesInfo18PRIMITIVE_MODALITYE(ptr noundef nonnull align 8 dereferenceable(40) %0, i32 noundef %1) #5 comdat align 2 {
  %3 = alloca i1, align 1
  %4 = alloca ptr, align 8
  %5 = alloca i32, align 4
  store ptr %0, ptr %4, align 8
  store i32 %1, ptr %5, align 4
  %6 = load ptr, ptr %4, align 8
  %7 = load i32, ptr %5, align 4
  %8 = icmp eq i32 %7, 4
  br i1 %8, label %9, label %10

9:                                                ; preds = %2
  store i1 false, ptr %3, align 1
  br label %23

10:                                               ; preds = %2
  %11 = getelementptr inbounds %"class.vcg::PerViewData", ptr %6, i32 0, i32 0
  %12 = load i32, ptr %5, align 4
  %13 = zext i32 %12 to i64
  %14 = call noundef zeroext i1 @_ZNKSt6bitsetILm4EE4testEm(ptr noundef nonnull align 8 dereferenceable(8) %11, i64 noundef %13)
  br i1 %14, label %15, label %21

15:                                               ; preds = %10
  %16 = getelementptr inbounds %"class.vcg::PerViewData", ptr %6, i32 0, i32 1
  %17 = load i32, ptr %5, align 4
  %18 = zext i32 %17 to i64
  %19 = call noundef nonnull align 1 dereferenceable(9) ptr @_ZNKSt6vectorIN3vcg20GLMeshAttributesInfo16InternalRendAttsESaIS2_EEixEm(ptr noundef nonnull align 8 dereferenceable(24) %16, i64 noundef %18) #3
  %20 = call noundef zeroext i1 @_ZNK3vcg20GLMeshAttributesInfo13RenderingAttsINS0_13INT_ATT_NAMESEEixEj(ptr noundef nonnull align 1 dereferenceable(9) %19, i32 noundef 0)
  br label %21

21:                                               ; preds = %15, %10
  %22 = phi i1 [ false, %10 ], [ %20, %15 ]
  store i1 %22, ptr %3, align 1
  br label %23

23:                                               ; preds = %21, %9
  %24 = load i1, ptr %3, align 1
  ret i1 %24
}

; Function Attrs: mustprogress uwtable
define noundef zeroext i1 @_ZNK23MLRenderingPointsAction22isRenderingDataEnabledERK15MLRenderingData(ptr noundef nonnull align 8 dereferenceable(16) %0, ptr noundef nonnull align 8 dereferenceable(40) %1) unnamed_addr #5 align 2 {
  %3 = alloca ptr, align 8
  %4 = alloca ptr, align 8
  store ptr %0, ptr %3, align 8
  store ptr %1, ptr %4, align 8
  %5 = load ptr, ptr %4, align 8
  %6 = call noundef zeroext i1 @_ZNK3vcg11PerViewDataI18MLPerViewGLOptionsE17isPrimitiveActiveENS_20GLMeshAttributesInfo18PRIMITIVE_MODALITYE(ptr noundef nonnull align 8 dereferenceable(40) %5, i32 noundef 0)
  ret i1 %6
}